target datalayout = "e-m:e-p270:32:32-p271:32:32-p272:64:64-i64:64-i128:128-f80:128-n8:16:32:64-S128"
target triple = "x86_64-pc-linux-gnu"

; Function Attrs: nounwind uwtable
define dso_local ptr @decl_to_name(ptr noundef %0) #0 {
  %2 = alloca ptr, align 8
  %3 = alloca ptr, align 8
  %4 = alloca ptr, align 8
  store ptr %0, ptr %3, align 8
  %5 = load ptr, ptr %3, align 8
  %6 = call ptr @decl_to_a_name(ptr noundef %5)
  store ptr %6, ptr %4, align 8
  %7 = load ptr, ptr %4, align 8
  %8 = getelementptr inbounds i8, ptr %7, i64 1
  %9 = load i8, ptr %8, align 1
  %10 = sext i8 %9 to i32
  %11 = icmp eq i32 %10, 110
  br i1 %11, label %12, label %15

12:                                               ; preds = %1
  %13 = load ptr, ptr %4, align 8
  %14 = getelementptr inbounds i8, ptr %13, i64 3
  store ptr %14, ptr %2, align 8
  br label %18

15:                                               ; preds = %1
  %16 = load ptr, ptr %4, align 8
  %17 = getelementptr inbounds i8, ptr %16, i64 2
  store ptr %17, ptr %2, align 8
  br label %18

18:                                               ; preds = %15, %12
  %19 = load ptr, ptr %2, align 8
  ret ptr %19
}