; Function Attrs: nounwind uwtable
define dso_local nonnull ptr @decl_to_name(ptr nocapture noundef readonly %0) local_unnamed_addr #0 {
  %2 = tail call ptr @decl_to_a_name(ptr noundef %0)
  %3 = getelementptr inbounds i8, ptr %2, i64 1
  %4 = load i8, ptr %3, align 1
  %5 = icmp eq i8 %4, 110
  %.0.v = select i1 %5, i64 3, i64 2
  %.0 = getelementptr inbounds i8, ptr %2, i64 %.0.v
  ret ptr %.0
}